; Function Attrs: mustprogress nofree norecurse nosync nounwind willreturn memory(argmem: readwrite) uwtable
define internal noundef zeroext i1 @"_ZNSt17_Function_handlerIFbRKN5Eigen6MatrixIdLin1ELin1ELi0ELin1ELin1EEERKNS1_IiLin1ELin1ELi0ELin1ELin1EEES7_RKNS1_IiLin1ELi1ELi0ELin1ELi1EEES7_S7_RKSt14priority_queueISt5tupleIJdiiEESt6vectorISD_SaISD_EESt7greaterISD_EESA_S4_iiiiiEZN3igl32infinite_cost_stopping_conditionERKSt8functionIFviS4_S7_S7_SA_S7_S7_RdRNS1_IdLi1ELin1ELi1ELi1ELin1EEEEERSO_ISM_EE3$_0E10_M_managerERSt9_Any_dataRKS10_St18_Manager_operation"(ptr noundef nonnull writeonly align 8 captures(none) dereferenceable(16) %0, ptr noundef nonnull align 8 dereferenceable(16) %1, i32 noundef %2) #2 align 2 personality ptr @__gxx_personality_v0 {
  switch i32 %2, label %"_ZNSt14_Function_base13_Base_managerIZN3igl32infinite_cost_stopping_conditionERKSt8functionIFviRKN5Eigen6MatrixIdLin1ELin1ELi0ELin1ELin1EEERKNS4_IiLin1ELin1ELi0ELin1ELin1EEESA_RKNS4_IiLin1ELi1ELi0ELin1ELi1EEESA_SA_RdRNS4_IdLi1ELin1ELi1ELi1ELin1EEEEERS2_IFbS7_SA_SA_SD_SA_SA_RKSt14priority_queueISt5tupleIJdiiEESt6vectorISN_SaISN_EESt7greaterISN_EESD_S7_iiiiiEEE3$_0E10_M_managerERSt9_Any_dataRKS11_St18_Manager_operation.exit" [
    i32 0, label %4
    i32 1, label %5
    i32 2, label %6
  ]

4:                                                ; preds = %3
  store ptr @"_ZTIZN3igl32infinite_cost_stopping_conditionERKSt8functionIFviRKN5Eigen6MatrixIdLin1ELin1ELi0ELin1ELin1EEERKNS2_IiLin1ELin1ELi0ELin1ELin1EEES8_RKNS2_IiLin1ELi1ELi0ELin1ELi1EEES8_S8_RdRNS2_IdLi1ELin1ELi1ELi1ELin1EEEEERS0_IFbS5_S8_S8_SB_S8_S8_RKSt14priority_queueISt5tupleIJdiiEESt6vectorISL_SaISL_EESt7greaterISL_EESB_S5_iiiiiEEE3$_0", ptr %0, align 8, !tbaa !27
  br label %"_ZNSt14_Function_base13_Base_managerIZN3igl32infinite_cost_stopping_conditionERKSt8functionIFviRKN5Eigen6MatrixIdLin1ELin1ELi0ELin1ELin1EEERKNS4_IiLin1ELin1ELi0ELin1ELin1EEESA_RKNS4_IiLin1ELi1ELi0ELin1ELi1EEESA_SA_RdRNS4_IdLi1ELin1ELi1ELi1ELin1EEEEERS2_IFbS7_SA_SA_SD_SA_SA_RKSt14priority_queueISt5tupleIJdiiEESt6vectorISN_SaISN_EESt7greaterISN_EESD_S7_iiiiiEEE3$_0E10_M_managerERSt9_Any_dataRKS11_St18_Manager_operation.exit"

5:                                                ; preds = %3
  store ptr %1, ptr %0, align 8, !tbaa !11
  br label %"_ZNSt14_Function_base13_Base_managerIZN3igl32infinite_cost_stopping_conditionERKSt8functionIFviRKN5Eigen6MatrixIdLin1ELin1ELi0ELin1ELin1EEERKNS4_IiLin1ELin1ELi0ELin1ELin1EEESA_RKNS4_IiLin1ELi1ELi0ELin1ELi1EEESA_SA_RdRNS4_IdLi1ELin1ELi1ELi1ELin1EEEEERS2_IFbS7_SA_SA_SD_SA_SA_RKSt14priority_queueISt5tupleIJdiiEESt6vectorISN_SaISN_EESt7greaterISN_EESD_S7_iiiiiEEE3$_0E10_M_managerERSt9_Any_dataRKS11_St18_Manager_operation.exit"

6:                                                ; preds = %3
  %.val.i = load i64, ptr %1, align 8, !tbaa !4
  store i64 %.val.i, ptr %0, align 8, !tbaa !4
  br label %"_ZNSt14_Function_base13_Base_managerIZN3igl32infinite_cost_stopping_conditionERKSt8functionIFviRKN5Eigen6MatrixIdLin1ELin1ELi0ELin1ELin1EEERKNS4_IiLin1ELin1ELi0ELin1ELin1EEESA_RKNS4_IiLin1ELi1ELi0ELin1ELi1EEESA_SA_RdRNS4_IdLi1ELin1ELi1ELi1ELin1EEEEERS2_IFbS7_SA_SA_SD_SA_SA_RKSt14priority_queueISt5tupleIJdiiEESt6vectorISN_SaISN_EESt7greaterISN_EESD_S7_iiiiiEEE3$_0E10_M_managerERSt9_Any_dataRKS11_St18_Manager_operation.exit"

"_ZNSt14_Function_base13_Base_managerIZN3igl32infinite_cost_stopping_conditionERKSt8functionIFviRKN5Eigen6MatrixIdLin1ELin1ELi0ELin1ELin1EEERKNS4_IiLin1ELin1ELi0ELin1ELin1EEESA_RKNS4_IiLin1ELi1ELi0ELin1ELi1EEESA_SA_RdRNS4_IdLi1ELin1ELi1ELi1ELin1EEEEERS2_IFbS7_SA_SA_SD_SA_SA_RKSt14priority_queueISt5tupleIJdiiEESt6vectorISN_SaISN_EESt7greaterISN_EESD_S7_iiiiiEEE3$_0E10_M_managerERSt9_Any_dataRKS11_St18_Manager_operation.exit": ; preds = %3, %6, %5, %4
  ret i1 false
}